target datalayout = "e-m:e-p270:32:32-p271:32:32-p272:64:64-i64:64-i128:128-f80:128-n8:16:32:64-S128"
target triple = "x86_64-pc-linux-gnu"

%struct.Node = type { i32 }

@.str = private unnamed_addr constant [80 x i8] c"index access method handler function %u did not return an IndexAmRoutine struct\00", align 1
@.str.1 = private unnamed_addr constant [8 x i8] c"amapi.c\00", align 1
@__func__.GetIndexAmRoutine = private unnamed_addr constant [18 x i8] c"GetIndexAmRoutine\00", align 1

; Function Attrs: inlinehint nounwind uwtable
define internal ptr @DatumGetPointer(i64 noundef %0) #3 {
  %2 = alloca i64, align 8
  store i64 %0, ptr %2, align 8
  %3 = load i64, ptr %2, align 8
  %4 = inttoptr i64 %3 to ptr
  ret ptr %4
}

; Function Attrs: nounwind uwtable
define dso_local ptr @GetIndexAmRoutine(i32 noundef %0) #0 {
  %2 = alloca i32, align 4
  %3 = alloca i64, align 8
  %4 = alloca ptr, align 8
  store i32 %0, ptr %2, align 4
  call void @llvm.lifetime.start.p0(i64 8, ptr %3) #5
  call void @llvm.lifetime.start.p0(i64 8, ptr %4) #5
  %5 = load i32, ptr %2, align 4
  %6 = call i64 @OidFunctionCall0Coll(i32 noundef %5, i32 noundef 0)
  store i64 %6, ptr %3, align 8
  %7 = load i64, ptr %3, align 8
  %8 = call ptr @DatumGetPointer(i64 noundef %7)
  store ptr %8, ptr %4, align 8
  %9 = load ptr, ptr %4, align 8
  %10 = icmp eq ptr %9, null
  br i1 %10, label %16, label %11

11:                                               ; preds = %1
  %12 = load ptr, ptr %4, align 8
  %13 = getelementptr inbounds nuw %struct.Node, ptr %12, i32 0, i32 0
  %14 = load i32, ptr %13, align 4
  %15 = icmp eq i32 %14, 437
  br i1 %15, label %28, label %16

16:                                               ; preds = %11, %1
  br label %17

17:                                               ; preds = %16
  br i1 true, label %18, label %20

18:                                               ; preds = %17
  %19 = call zeroext i1 @errstart_cold(i32 noundef 21, ptr noundef null) #6
  br i1 %19, label %22, label %25

20:                                               ; preds = %17
  %21 = call zeroext i1 @errstart(i32 noundef 21, ptr noundef null)
  br i1 %21, label %22, label %25

22:                                               ; preds = %20, %18
  %23 = load i32, ptr %2, align 4
  %24 = call i32 (ptr, ...) @errmsg_internal(ptr noundef @.str, i32 noundef %23)
  call void @errfinish(ptr noundef @.str.1, i32 noundef 43, ptr noundef @__func__.GetIndexAmRoutine)
  br label %25

25:                                               ; preds = %22, %20, %18
  unreachable

26:                                               ; No predecessors!
  br label %27

27:                                               ; preds = %26
  br label %28

28:                                               ; preds = %27, %11
  %29 = load ptr, ptr %4, align 8
  call void @llvm.lifetime.end.p0(i64 8, ptr %4) #5
  call void @llvm.lifetime.end.p0(i64 8, ptr %3) #5
  ret ptr %29
}