; Function Attrs: nounwind uwtable
define dso_local nonnull ptr @GetIndexAmRoutine(i32 noundef %0) local_unnamed_addr #0 {
  %2 = tail call i64 @OidFunctionCall0Coll(i32 noundef %0, i32 noundef 0) #4
  %3 = inttoptr i64 %2 to ptr
  %4 = icmp eq i64 %2, 0
  br i1 %4, label %8, label %5

5:                                                ; preds = %1
  %6 = load i32, ptr %3, align 4
  %7 = icmp eq i32 %6, 437
  br i1 %7, label %11, label %8

8:                                                ; preds = %5, %1
  %9 = tail call zeroext i1 @errstart_cold(i32 noundef 21, ptr noundef null) #5
  tail call void @llvm.assume(i1 %9)
  %10 = tail call i32 (ptr, ...) @errmsg_internal(ptr noundef nonnull @.str, i32 noundef %0) #4
  tail call void @errfinish(ptr noundef nonnull @.str.1, i32 noundef 43, ptr noundef nonnull @__func__.GetIndexAmRoutine) #4
  unreachable

11:                                               ; preds = %5
  ret ptr %3
}